; Function Attrs: mustprogress nounwind uwtable
define void @_ZN6google8protobuf9ListValueD2Ev(ptr noundef nonnull align 8 dereferenceable(48) %this) unnamed_addr #6 align 2 personality ptr @__gxx_personality_v0 {
entry:
  %_internal_metadata_ = getelementptr inbounds i8, ptr %this, i64 8
  %0 = load i64, ptr %_internal_metadata_, align 8
  %and.i.i = and i64 %0, 1
  %tobool.i.not.i = icmp eq i64 %and.i.i, 0
  br i1 %tobool.i.not.i, label %invoke.cont, label %if.then.i

if.then.i:                                        ; preds = %entry
  invoke void @_ZN6google8protobuf8internal16InternalMetadata21DeleteOutOfLineHelperINS0_15UnknownFieldSetEEEvv(ptr noundef nonnull align 8 dereferenceable(8) %_internal_metadata_)
          to label %invoke.cont unwind label %terminate.lpad

invoke.cont:                                      ; preds = %entry, %if.then.i
  %1 = getelementptr inbounds i8, ptr %this, i64 16
  %2 = load ptr, ptr %1, align 8
  %cmp.i.not.i.i.i = icmp eq ptr %2, null
  br i1 %cmp.i.not.i.i.i, label %_ZN6google8protobuf9ListValue10SharedDtorEv.exit, label %if.end.i.i.i

if.end.i.i.i:                                     ; preds = %invoke.cont
  invoke void @_ZN6google8protobuf8internal20RepeatedPtrFieldBase13DestroyProtosEv(ptr noundef nonnull align 8 dereferenceable(24) %1)
          to label %_ZN6google8protobuf9ListValue10SharedDtorEv.exit unwind label %terminate.lpad.i.i.i

terminate.lpad.i.i.i:                             ; preds = %if.end.i.i.i
  %3 = landingpad { ptr, i32 }
          catch ptr null
  %4 = extractvalue { ptr, i32 } %3, 0
  tail call void @__clang_call_terminate(ptr %4) #24
  unreachable

_ZN6google8protobuf9ListValue10SharedDtorEv.exit: ; preds = %invoke.cont, %if.end.i.i.i
  ret void

terminate.lpad:                                   ; preds = %if.then.i
  %5 = landingpad { ptr, i32 }
          catch ptr null
  %6 = extractvalue { ptr, i32 } %5, 0
  tail call void @__clang_call_terminate(ptr %6) #24
  unreachable
}